target datalayout = "e-m:e-p270:32:32-p271:32:32-p272:64:64-i64:64-i128:128-f80:128-n8:16:32:64-S128"
target triple = "x86_64-pc-linux-gnu"

%struct.DdManager = type { %struct.DdNode, ptr, ptr, ptr, ptr, ptr, ptr, ptr, i32, i32, double, double, double, i32, i32, i32, i32, i32, i32, ptr, ptr, %struct.DdSubtable, i32, i32, i32, i32, i32, i32, i32, double, i32, i32, i32, ptr, i64, double, i32, ptr, ptr, ptr, ptr, ptr, ptr, ptr, i32, ptr, ptr, ptr, ptr, ptr, ptr, i32, i32, i32, double, i32, i32, i32, i32, double, double, i32, i32, i32, i32, i32, i32, i32, i32, i32, ptr, ptr, i32, i32, i32, i32, i32, i32, ptr, ptr, ptr, ptr, ptr, ptr, ptr, ptr, i32, i64, i64, i64, i32, i64, i64, double, double, double, double, double, double, i32, ptr, ptr, i64 }
%struct.DdNode = type { i32, i32, ptr, %union.anon, i64 }
%union.anon = type { %struct.DdChildren }
%struct.DdChildren = type { ptr, ptr }
%struct.DdSubtable = type { ptr, i32, i32, i32, i32, i32, i32, i32, i32, i32, i32, i32 }

@background = internal global ptr null, align 8
@zero = internal global ptr null, align 8

; Function Attrs: nounwind uwtable
define i32 @Cudd_PrintMinterm(ptr noundef %0, ptr noundef %1) #0 {
  %3 = alloca i32, align 4
  %4 = alloca ptr, align 8
  %5 = alloca ptr, align 8
  %6 = alloca i32, align 4
  %7 = alloca ptr, align 8
  store ptr %0, ptr %4, align 8
  store ptr %1, ptr %5, align 8
  %8 = load ptr, ptr %4, align 8
  %9 = getelementptr inbounds %struct.DdManager, ptr %8, i32 0, i32 5
  %10 = load ptr, ptr %9, align 8
  store ptr %10, ptr @background, align 8
  %11 = load ptr, ptr %4, align 8
  %12 = getelementptr inbounds %struct.DdManager, ptr %11, i32 0, i32 1
  %13 = load ptr, ptr %12, align 8
  %14 = ptrtoint ptr %13 to i64
  %15 = xor i64 %14, 1
  %16 = inttoptr i64 %15 to ptr
  store ptr %16, ptr @zero, align 8
  %17 = load ptr, ptr %4, align 8
  %18 = getelementptr inbounds %struct.DdManager, ptr %17, i32 0, i32 15
  %19 = load i32, ptr %18, align 8
  %20 = sext i32 %19 to i64
  %21 = mul i64 4, %20
  %22 = call noalias ptr @malloc(i64 noundef %21) #5
  store ptr %22, ptr %7, align 8
  %23 = load ptr, ptr %7, align 8
  %24 = icmp eq ptr %23, null
  br i1 %24, label %25, label %28

25:                                               ; preds = %2
  %26 = load ptr, ptr %4, align 8
  %27 = getelementptr inbounds %struct.DdManager, ptr %26, i32 0, i32 86
  store i32 1, ptr %27, align 8
  store i32 0, ptr %3, align 4
  br label %53

28:                                               ; preds = %2
  store i32 0, ptr %6, align 4
  br label %29

29:                                               ; preds = %40, %28
  %30 = load i32, ptr %6, align 4
  %31 = load ptr, ptr %4, align 8
  %32 = getelementptr inbounds %struct.DdManager, ptr %31, i32 0, i32 15
  %33 = load i32, ptr %32, align 8
  %34 = icmp slt i32 %30, %33
  br i1 %34, label %35, label %43

35:                                               ; preds = %29
  %36 = load ptr, ptr %7, align 8
  %37 = load i32, ptr %6, align 4
  %38 = sext i32 %37 to i64
  %39 = getelementptr inbounds i32, ptr %36, i64 %38
  store i32 2, ptr %39, align 4
  br label %40

40:                                               ; preds = %35
  %41 = load i32, ptr %6, align 4
  %42 = add nsw i32 %41, 1
  store i32 %42, ptr %6, align 4
  br label %29, !llvm.loop !4

43:                                               ; preds = %29
  %44 = load ptr, ptr %4, align 8
  %45 = load ptr, ptr %5, align 8
  %46 = load ptr, ptr %7, align 8
  call void @ddPrintMintermAux(ptr noundef %44, ptr noundef %45, ptr noundef %46)
  %47 = load ptr, ptr %7, align 8
  %48 = icmp ne ptr %47, null
  br i1 %48, label %49, label %51

49:                                               ; preds = %43
  %50 = load ptr, ptr %7, align 8
  call void @free(ptr noundef %50) #6
  store ptr null, ptr %7, align 8
  br label %52

51:                                               ; preds = %43
  br label %52

52:                                               ; preds = %51, %49
  store i32 1, ptr %3, align 4
  br label %53

53:                                               ; preds = %52, %25
  %54 = load i32, ptr %3, align 4
  ret i32 %54
}