; Function Attrs: nounwind uwtable
define range(i32 0, 2) i32 @Cudd_PrintMinterm(ptr noundef %0, ptr noundef %1) local_unnamed_addr #0 {
  %3 = getelementptr inbounds nuw i8, ptr %0, i64 72
  %4 = load ptr, ptr %3, align 8
  store ptr %4, ptr @background, align 8
  %5 = getelementptr inbounds nuw i8, ptr %0, i64 40
  %6 = load ptr, ptr %5, align 8
  %7 = ptrtoint ptr %6 to i64
  %8 = xor i64 %7, 1
  %9 = inttoptr i64 %8 to ptr
  store ptr %9, ptr @zero, align 8
  %10 = getelementptr inbounds nuw i8, ptr %0, i64 136
  %11 = load i32, ptr %10, align 8
  %12 = sext i32 %11 to i64
  %13 = shl nsw i64 %12, 2
  %14 = tail call noalias ptr @malloc(i64 noundef %13) #22
  %15 = icmp eq ptr %14, null
  br i1 %15, label %17, label %.preheader

.preheader:                                       ; preds = %2
  %16 = icmp sgt i32 %11, 0
  br i1 %16, label %.lr.ph.preheader, label %._crit_edge

.lr.ph.preheader:                                 ; preds = %.preheader
  %wide.trip.count = zext nneg i32 %11 to i64
  br label %.lr.ph

17:                                               ; preds = %2
  %18 = getelementptr inbounds nuw i8, ptr %0, i64 624
  store i32 1, ptr %18, align 8
  br label %20

.lr.ph:                                           ; preds = %.lr.ph.preheader, %.lr.ph
  %indvars.iv = phi i64 [ 0, %.lr.ph.preheader ], [ %indvars.iv.next, %.lr.ph ]
  %19 = getelementptr inbounds nuw i32, ptr %14, i64 %indvars.iv
  store i32 2, ptr %19, align 4
  %indvars.iv.next = add nuw nsw i64 %indvars.iv, 1
  %exitcond.not = icmp eq i64 %indvars.iv.next, %wide.trip.count
  br i1 %exitcond.not, label %._crit_edge, label %.lr.ph, !llvm.loop !4

._crit_edge:                                      ; preds = %.lr.ph, %.preheader
  tail call fastcc void @ddPrintMintermAux(ptr noundef %0, ptr noundef %1, ptr noundef %14)
  tail call void @free(ptr noundef nonnull %14) #23
  br label %20

20:                                               ; preds = %._crit_edge, %17
  %.015 = phi i32 [ 0, %17 ], [ 1, %._crit_edge ]
  ret i32 %.015
}